; Function Attrs: nounwind uwtable
define dso_local range(i64 0, 4294967296) i64 @xidin(ptr noundef readonly captures(none) %0) local_unnamed_addr #0 {
  %2 = getelementptr inbounds nuw i8, ptr %0, i64 32
  %3 = load i64, ptr %2, align 8
  %4 = inttoptr i64 %3 to ptr
  %5 = getelementptr inbounds nuw i8, ptr %0, i64 8
  %6 = load ptr, ptr %5, align 8
  %7 = tail call i32 @uint32in_subr(ptr noundef %4, ptr noundef null, ptr noundef nonnull @.str, ptr noundef %6) #7
  %8 = zext i32 %7 to i64
  ret i64 %8
}